; Function Attrs: mustprogress nounwind uwtable
define hidden void @_ZN4llvh16FoldingSetNodeID10AddIntegerEm(ptr noundef nonnull align 8 dereferenceable(144) %this, i64 noundef %I) local_unnamed_addr #0 align 2 {
entry:
  %conv.i = trunc i64 %I to i32
  %Size.i.i.i.i = getelementptr inbounds i8, ptr %this, i64 8
  %0 = load i32, ptr %Size.i.i.i.i, align 8
  %Capacity.i.i.i.i = getelementptr inbounds i8, ptr %this, i64 12
  %1 = load i32, ptr %Capacity.i.i.i.i, align 4
  %cmp.not.i.i.i = icmp ult i32 %0, %1
  br i1 %cmp.not.i.i.i, label %_ZN4llvh16FoldingSetNodeID10AddIntegerEj.exit.i, label %if.then.i.i.i

if.then.i.i.i:                                    ; preds = %entry
  %add.ptr.i.i.i.i.i.i = getelementptr inbounds i8, ptr %this, i64 16
  tail call void @_ZN4llvh15SmallVectorBase8grow_podEPvmm(ptr noundef nonnull align 8 dereferenceable(16) %this, ptr noundef nonnull %add.ptr.i.i.i.i.i.i, i64 noundef 0, i64 noundef 4) #21
  %.pre.i.i.i = load i32, ptr %Size.i.i.i.i, align 8
  br label %_ZN4llvh16FoldingSetNodeID10AddIntegerEj.exit.i

_ZN4llvh16FoldingSetNodeID10AddIntegerEj.exit.i:  ; preds = %if.then.i.i.i, %entry
  %2 = phi i32 [ %.pre.i.i.i, %if.then.i.i.i ], [ %0, %entry ]
  %3 = load ptr, ptr %this, align 8
  %conv.i3.i.i.i = zext i32 %2 to i64
  %add.ptr.i.i.i.i = getelementptr inbounds i32, ptr %3, i64 %conv.i3.i.i.i
  store i32 %conv.i, ptr %add.ptr.i.i.i.i, align 1
  %4 = load i32, ptr %Size.i.i.i.i, align 8
  %add.i.i.i = add i32 %4, 1
  store i32 %add.i.i.i, ptr %Size.i.i.i.i, align 8
  %5 = load i32, ptr %Capacity.i.i.i.i, align 4
  %cmp.not.i.i4.i = icmp ult i32 %add.i.i.i, %5
  br i1 %cmp.not.i.i4.i, label %_ZN4llvh16FoldingSetNodeID10AddIntegerEy.exit, label %if.then.i.i5.i

if.then.i.i5.i:                                   ; preds = %_ZN4llvh16FoldingSetNodeID10AddIntegerEj.exit.i
  %add.ptr.i.i.i.i.i6.i = getelementptr inbounds i8, ptr %this, i64 16
  tail call void @_ZN4llvh15SmallVectorBase8grow_podEPvmm(ptr noundef nonnull align 8 dereferenceable(16) %this, ptr noundef nonnull %add.ptr.i.i.i.i.i6.i, i64 noundef 0, i64 noundef 4) #21
  %.pre.i.i7.i = load i32, ptr %Size.i.i.i.i, align 8
  br label %_ZN4llvh16FoldingSetNodeID10AddIntegerEy.exit

_ZN4llvh16FoldingSetNodeID10AddIntegerEy.exit:    ; preds = %_ZN4llvh16FoldingSetNodeID10AddIntegerEj.exit.i, %if.then.i.i5.i
  %6 = phi i32 [ %.pre.i.i7.i, %if.then.i.i5.i ], [ %add.i.i.i, %_ZN4llvh16FoldingSetNodeID10AddIntegerEj.exit.i ]
  %shr.i = lshr i64 %I, 32
  %conv2.i = trunc i64 %shr.i to i32
  %7 = load ptr, ptr %this, align 8
  %conv.i3.i.i8.i = zext i32 %6 to i64
  %add.ptr.i.i.i9.i = getelementptr inbounds i32, ptr %7, i64 %conv.i3.i.i8.i
  store i32 %conv2.i, ptr %add.ptr.i.i.i9.i, align 1
  %8 = load i32, ptr %Size.i.i.i.i, align 8
  %add.i.i10.i = add i32 %8, 1
  store i32 %add.i.i10.i, ptr %Size.i.i.i.i, align 8
  ret void
}